target datalayout = "e-m:e-p270:32:32-p271:32:32-p272:64:64-i64:64-i128:128-f80:128-n8:16:32:64-S128"
target triple = "x86_64-pc-linux-gnu"

%struct.mbedtls_ssl_config = type { i32, i32, i8, i8, i8, i8, i8, i8, i8, i8, i8, i8, i16, i8, i8, i8, ptr, i32, ptr, ptr, ptr, ptr, ptr, ptr, ptr, ptr, ptr, ptr, ptr, ptr, ptr, ptr, ptr, ptr, ptr, ptr, ptr, i64, ptr, ptr, ptr, ptr, ptr, ptr, ptr, ptr, %struct.mbedtls_mpi, %struct.mbedtls_mpi, ptr, i64, ptr, i64, ptr, i32, i32, i32, i32, [8 x i8], i32, i32, %union.mbedtls_ssl_user_data_t, ptr, ptr }
%struct.mbedtls_mpi = type { ptr, i16, i16 }
%union.mbedtls_ssl_user_data_t = type { i64 }

; Function Attrs: nounwind uwtable
define hidden i32 @mbedtls_ssl_conf_alpn_protocols(ptr noundef %0, ptr noundef %1) #0 {
  %3 = alloca i32, align 4
  %4 = alloca ptr, align 8
  %5 = alloca ptr, align 8
  %6 = alloca i64, align 8
  %7 = alloca i64, align 8
  %8 = alloca ptr, align 8
  %9 = alloca i32, align 4
  store ptr %0, ptr %4, align 8, !tbaa !3
  store ptr %1, ptr %5, align 8, !tbaa !226
  call void @llvm.lifetime.start.p0(i64 8, ptr %6) #11
  call void @llvm.lifetime.start.p0(i64 8, ptr %7) #11
  call void @llvm.lifetime.start.p0(i64 8, ptr %8) #11
  store i64 0, ptr %7, align 8, !tbaa !8
  %10 = load ptr, ptr %5, align 8, !tbaa !226
  store ptr %10, ptr %8, align 8, !tbaa !226
  br label %11

11:                                               ; preds = %32, %2
  %12 = load ptr, ptr %8, align 8, !tbaa !226
  %13 = load ptr, ptr %12, align 8, !tbaa !29
  %14 = icmp ne ptr %13, null
  br i1 %14, label %15, label %35

15:                                               ; preds = %11
  %16 = load ptr, ptr %8, align 8, !tbaa !226
  %17 = load ptr, ptr %16, align 8, !tbaa !29
  %18 = call i64 @strlen(ptr noundef %17) #13
  store i64 %18, ptr %6, align 8, !tbaa !8
  %19 = load i64, ptr %6, align 8, !tbaa !8
  %20 = load i64, ptr %7, align 8, !tbaa !8
  %21 = add i64 %20, %19
  store i64 %21, ptr %7, align 8, !tbaa !8
  %22 = load i64, ptr %6, align 8, !tbaa !8
  %23 = icmp eq i64 %22, 0
  br i1 %23, label %30, label %24

24:                                               ; preds = %15
  %25 = load i64, ptr %6, align 8, !tbaa !8
  %26 = icmp ugt i64 %25, 255
  br i1 %26, label %30, label %27

27:                                               ; preds = %24
  %28 = load i64, ptr %7, align 8, !tbaa !8
  %29 = icmp ugt i64 %28, 65535
  br i1 %29, label %30, label %31

30:                                               ; preds = %27, %24, %15
  store i32 -28928, ptr %3, align 4
  store i32 1, ptr %9, align 4
  br label %39

31:                                               ; preds = %27
  br label %32

32:                                               ; preds = %31
  %33 = load ptr, ptr %8, align 8, !tbaa !226
  %34 = getelementptr inbounds nuw ptr, ptr %33, i32 1
  store ptr %34, ptr %8, align 8, !tbaa !226
  br label %11, !llvm.loop !227

35:                                               ; preds = %11
  %36 = load ptr, ptr %5, align 8, !tbaa !226
  %37 = load ptr, ptr %4, align 8, !tbaa !3
  %38 = getelementptr inbounds nuw %struct.mbedtls_ssl_config, ptr %37, i32 0, i32 52
  store ptr %36, ptr %38, align 8, !tbaa !228
  store i32 0, ptr %3, align 4
  store i32 1, ptr %9, align 4
  br label %39

39:                                               ; preds = %35, %30
  call void @llvm.lifetime.end.p0(i64 8, ptr %8) #11
  call void @llvm.lifetime.end.p0(i64 8, ptr %7) #11
  call void @llvm.lifetime.end.p0(i64 8, ptr %6) #11
  %40 = load i32, ptr %3, align 4
  ret i32 %40
}