; Function Attrs: nofree nounwind memory(read, argmem: readwrite, inaccessiblemem: none) uwtable
define hidden range(i32 -28928, 1) i32 @mbedtls_ssl_conf_alpn_protocols(ptr noundef writeonly captures(none) %0, ptr noundef %1) local_unnamed_addr #15 {
  %3 = load ptr, ptr %1, align 8, !tbaa !64
  %.not18 = icmp eq ptr %3, null
  br i1 %.not18, label %._crit_edge, label %.lr.ph

4:                                                ; preds = %.lr.ph
  %5 = getelementptr inbounds nuw i8, ptr %.020, i64 8
  %6 = load ptr, ptr %5, align 8, !tbaa !64
  %.not = icmp eq ptr %6, null
  br i1 %.not, label %._crit_edge, label %.lr.ph, !llvm.loop !193

.lr.ph:                                           ; preds = %2, %4
  %7 = phi ptr [ %6, %4 ], [ %3, %2 ]
  %.020 = phi ptr [ %5, %4 ], [ %1, %2 ]
  %.01419 = phi i64 [ %9, %4 ], [ 0, %2 ]
  %8 = tail call i64 @strlen(ptr noundef nonnull dereferenceable(1) %7) #28
  %9 = add i64 %8, %.01419
  %10 = add i64 %8, -256
  %or.cond = icmp ult i64 %10, -255
  %11 = icmp ugt i64 %9, 65535
  %or.cond3 = select i1 %or.cond, i1 true, i1 %11
  br i1 %or.cond3, label %.loopexit, label %4

._crit_edge:                                      ; preds = %4, %2
  %12 = getelementptr inbounds nuw i8, ptr %0, i64 328
  store ptr %1, ptr %12, align 8, !tbaa !194
  br label %.loopexit

.loopexit:                                        ; preds = %.lr.ph, %._crit_edge
  %.015 = phi i32 [ 0, %._crit_edge ], [ -28928, %.lr.ph ]
  ret i32 %.015
}